target datalayout = "e-m:e-p270:32:32-p271:32:32-p272:64:64-i64:64-i128:128-f80:128-n8:16:32:64-S128"
target triple = "x86_64-pc-linux-gnu"

%struct._zend_phpdbg_globals = type { [11 x %struct._zend_array], %struct._zend_array, %struct._zend_array, ptr, ptr, %struct.phpdbg_frame_t, i32, ptr, %struct.phpdbg_lexer_data, ptr, %struct.sigaction, i32, i64, %struct.phpdbg_btree, %struct.phpdbg_btree, %struct._zend_array, %struct._zend_array, %struct._zend_array, %struct._zend_array, ptr, ptr, ptr, i8, ptr, ptr, ptr, i64, ptr, %struct._zval_struct, i32, i32, i8, i8, ptr, ptr, ptr, %struct._zend_array, ptr, ptr, ptr, [3 x %struct.anon.8], ptr, %struct.anon.9, i64, [2 x ptr], [3 x ptr], ptr, i8, ptr, ptr, [500 x i8], i32, %struct.phpdbg_signal_safe_mem, ptr, i64, ptr, i64 }
%struct.phpdbg_frame_t = type { i32, ptr, ptr }
%struct.phpdbg_lexer_data = type { i32, ptr, ptr, ptr, ptr, i32 }
%struct.sigaction = type { %union.anon.2, %struct.__sigset_t, i32, ptr }
%union.anon.2 = type { ptr }
%struct.__sigset_t = type { [16 x i64] }
%struct.phpdbg_btree = type { i64, i64, i8, ptr }
%struct._zval_struct = type { %union._zend_value, %union.anon.4, %union.anon.7 }
%union._zend_value = type { i64 }
%union.anon.4 = type { i32 }
%union.anon.7 = type { i32 }
%struct._zend_array = type { %struct._zend_refcounted_h, %union.anon.0, i32, %union.anon.1, i32, i32, i32, i32, i64, ptr }
%struct._zend_refcounted_h = type { i32, %union.anon }
%union.anon = type { i32 }
%union.anon.0 = type { i32 }
%union.anon.1 = type { ptr }
%struct.anon.8 = type { i32 }
%struct.anon.9 = type { i8, i32, i32, ptr, i32 }
%struct.phpdbg_signal_safe_mem = type { ptr, i8, ptr, ptr }

@phpdbg_globals = external global %struct._zend_phpdbg_globals, align 8
@.str = private unnamed_addr constant [104 x i8] c"/home/dtcxzyw/WorkSpace/Projects/compilers/llvm-opt-benchmark/bench/php/php-src/sapi/phpdbg/phpdbg_io.c\00", align 1

; Function Attrs: nounwind uwtable
define dso_local i32 @phpdbg_mixed_read(i32 noundef %0, ptr noundef %1, i32 noundef %2, i32 noundef %3) #0 {
  %5 = alloca i32, align 4
  %6 = alloca ptr, align 8
  %7 = alloca i32, align 4
  %8 = alloca i32, align 4
  %9 = alloca i32, align 4
  store i32 %0, ptr %5, align 4, !tbaa !39
  store ptr %1, ptr %6, align 8, !tbaa !4
  store i32 %2, ptr %7, align 4, !tbaa !39
  store i32 %3, ptr %8, align 4, !tbaa !39
  call void @llvm.lifetime.start.p0(i64 4, ptr %9) #7
  br label %10

10:                                               ; preds = %24, %4
  %11 = load i32, ptr %5, align 4, !tbaa !39
  %12 = load ptr, ptr %6, align 8, !tbaa !4
  %13 = load i32, ptr %7, align 4, !tbaa !39
  %14 = sext i32 %13 to i64
  %15 = call i64 @read(i32 noundef %11, ptr noundef %12, i64 noundef %14)
  %16 = trunc i64 %15 to i32
  store i32 %16, ptr %9, align 4, !tbaa !39
  br label %17

17:                                               ; preds = %10
  %18 = load i32, ptr %9, align 4, !tbaa !39
  %19 = icmp eq i32 %18, -1
  br i1 %19, label %20, label %24

20:                                               ; preds = %17
  %21 = call ptr @__errno_location() #9
  %22 = load i32, ptr %21, align 4, !tbaa !39
  %23 = icmp eq i32 %22, 4
  br label %24

24:                                               ; preds = %20, %17
  %25 = phi i1 [ false, %17 ], [ %23, %20 ]
  br i1 %25, label %10, label %26

26:                                               ; preds = %24
  %27 = load i32, ptr %9, align 4, !tbaa !39
  call void @llvm.lifetime.end.p0(i64 4, ptr %9) #7
  ret i32 %27
}

; Function Attrs: nounwind uwtable
define dso_local i32 @phpdbg_consume_stdin_line(ptr noundef %0) #0 {
  %2 = alloca i32, align 4
  %3 = alloca ptr, align 8
  %4 = alloca i32, align 4
  %5 = alloca i32, align 4
  %6 = alloca i32, align 4
  %7 = alloca i32, align 4
  store ptr %0, ptr %3, align 8, !tbaa !4
  call void @llvm.lifetime.start.p0(i64 4, ptr %4) #7
  %8 = load i32, ptr getelementptr inbounds nuw (%struct._zend_phpdbg_globals, ptr @phpdbg_globals, i32 0, i32 51), align 4, !tbaa !9
  store i32 %8, ptr %4, align 4, !tbaa !39
  call void @llvm.lifetime.start.p0(i64 4, ptr %5) #7
  store i32 0, ptr %5, align 4, !tbaa !39
  %9 = load i32, ptr getelementptr inbounds nuw (%struct._zend_phpdbg_globals, ptr @phpdbg_globals, i32 0, i32 51), align 4, !tbaa !9
  %10 = icmp ne i32 %9, 0
  br i1 %10, label %11, label %15

11:                                               ; preds = %1
  %12 = load ptr, ptr %3, align 8, !tbaa !4
  %13 = load i32, ptr %4, align 4, !tbaa !39
  %14 = sext i32 %13 to i64
  call void @llvm.memcpy.p0.p0.i64(ptr align 1 %12, ptr align 8 getelementptr inbounds nuw (%struct._zend_phpdbg_globals, ptr @phpdbg_globals, i32 0, i32 50), i64 %14, i1 false)
  br label %15

15:                                               ; preds = %11, %1
  store i8 1, ptr getelementptr inbounds nuw (%struct._zend_phpdbg_globals, ptr @phpdbg_globals, i32 0, i32 47), align 8, !tbaa !40
  br label %16

16:                                               ; preds = %112, %15
  call void @llvm.lifetime.start.p0(i64 4, ptr %6) #7
  %17 = load i32, ptr %4, align 4, !tbaa !39
  %18 = icmp sle i32 %17, 0
  br i1 %18, label %19, label %20

19:                                               ; preds = %16
  store i32 3, ptr %7, align 4
  br label %109

20:                                               ; preds = %16
  %21 = load i32, ptr %5, align 4, !tbaa !39
  store i32 %21, ptr %6, align 4, !tbaa !39
  br label %22

22:                                               ; preds = %102, %20
  %23 = load i32, ptr %6, align 4, !tbaa !39
  %24 = load i32, ptr %5, align 4, !tbaa !39
  %25 = load i32, ptr %4, align 4, !tbaa !39
  %26 = add nsw i32 %24, %25
  %27 = icmp slt i32 %23, %26
  br i1 %27, label %28, label %105

28:                                               ; preds = %22
  %29 = load ptr, ptr %3, align 8, !tbaa !4
  %30 = load i32, ptr %6, align 4, !tbaa !39
  %31 = sext i32 %30 to i64
  %32 = getelementptr inbounds i8, ptr %29, i64 %31
  %33 = load i8, ptr %32, align 1, !tbaa !41
  %34 = sext i8 %33 to i32
  %35 = icmp eq i32 %34, 3
  br i1 %35, label %36, label %65

36:                                               ; preds = %28
  %37 = load i32, ptr %6, align 4, !tbaa !39
  %38 = load i32, ptr %5, align 4, !tbaa !39
  %39 = load i32, ptr %4, align 4, !tbaa !39
  %40 = add nsw i32 %38, %39
  %41 = sub nsw i32 %40, 1
  %42 = icmp ne i32 %37, %41
  br i1 %42, label %43, label %60

43:                                               ; preds = %36
  %44 = load ptr, ptr %3, align 8, !tbaa !4
  %45 = load i32, ptr %6, align 4, !tbaa !39
  %46 = sext i32 %45 to i64
  %47 = getelementptr inbounds i8, ptr %44, i64 %46
  %48 = load ptr, ptr %3, align 8, !tbaa !4
  %49 = load i32, ptr %6, align 4, !tbaa !39
  %50 = sext i32 %49 to i64
  %51 = getelementptr inbounds i8, ptr %48, i64 %50
  %52 = getelementptr inbounds i8, ptr %51, i64 1
  %53 = load i32, ptr %5, align 4, !tbaa !39
  %54 = load i32, ptr %4, align 4, !tbaa !39
  %55 = add nsw i32 %53, %54
  %56 = load i32, ptr %6, align 4, !tbaa !39
  %57 = sub nsw i32 %55, %56
  %58 = sub nsw i32 %57, 1
  %59 = sext i32 %58 to i64
  call void @llvm.memmove.p0.p0.i64(ptr align 1 %47, ptr align 1 %52, i64 %59, i1 false)
  br label %60

60:                                               ; preds = %43, %36
  %61 = load i32, ptr %5, align 4, !tbaa !39
  %62 = add nsw i32 %61, -1
  store i32 %62, ptr %5, align 4, !tbaa !39
  %63 = load i32, ptr %6, align 4, !tbaa !39
  %64 = add nsw i32 %63, -1
  store i32 %64, ptr %6, align 4, !tbaa !39
  br label %102

65:                                               ; preds = %28
  %66 = load ptr, ptr %3, align 8, !tbaa !4
  %67 = load i32, ptr %6, align 4, !tbaa !39
  %68 = sext i32 %67 to i64
  %69 = getelementptr inbounds i8, ptr %66, i64 %68
  %70 = load i8, ptr %69, align 1, !tbaa !41
  %71 = sext i8 %70 to i32
  %72 = icmp eq i32 %71, 10
  br i1 %72, label %73, label %101

73:                                               ; preds = %65
  %74 = load i32, ptr %5, align 4, !tbaa !39
  %75 = load i32, ptr %4, align 4, !tbaa !39
  %76 = add nsw i32 %74, %75
  %77 = sub nsw i32 %76, 1
  %78 = load i32, ptr %6, align 4, !tbaa !39
  %79 = sub nsw i32 %77, %78
  store i32 %79, ptr getelementptr inbounds nuw (%struct._zend_phpdbg_globals, ptr @phpdbg_globals, i32 0, i32 51), align 4, !tbaa !9
  %80 = load i32, ptr getelementptr inbounds nuw (%struct._zend_phpdbg_globals, ptr @phpdbg_globals, i32 0, i32 51), align 4, !tbaa !9
  %81 = icmp ne i32 %80, 0
  br i1 %81, label %82, label %90

82:                                               ; preds = %73
  %83 = load ptr, ptr %3, align 8, !tbaa !4
  %84 = load i32, ptr %6, align 4, !tbaa !39
  %85 = sext i32 %84 to i64
  %86 = getelementptr inbounds i8, ptr %83, i64 %85
  %87 = getelementptr inbounds i8, ptr %86, i64 1
  %88 = load i32, ptr getelementptr inbounds nuw (%struct._zend_phpdbg_globals, ptr @phpdbg_globals, i32 0, i32 51), align 4, !tbaa !9
  %89 = sext i32 %88 to i64
  call void @llvm.memcpy.p0.p0.i64(ptr align 8 getelementptr inbounds nuw (%struct._zend_phpdbg_globals, ptr @phpdbg_globals, i32 0, i32 50), ptr align 1 %87, i64 %89, i1 false)
  br label %90

90:                                               ; preds = %82, %73
  %91 = load i32, ptr %6, align 4, !tbaa !39
  %92 = icmp ne i32 %91, 499
  br i1 %92, label %93, label %99

93:                                               ; preds = %90
  %94 = load ptr, ptr %3, align 8, !tbaa !4
  %95 = load i32, ptr %6, align 4, !tbaa !39
  %96 = add nsw i32 %95, 1
  %97 = sext i32 %96 to i64
  %98 = getelementptr inbounds i8, ptr %94, i64 %97
  store i8 0, ptr %98, align 1, !tbaa !41
  br label %99

99:                                               ; preds = %93, %90
  %100 = load i32, ptr %6, align 4, !tbaa !39
  store i32 %100, ptr %2, align 4
  store i32 1, ptr %7, align 4
  br label %109

101:                                              ; preds = %65
  br label %102

102:                                              ; preds = %101, %60
  %103 = load i32, ptr %6, align 4, !tbaa !39
  %104 = add nsw i32 %103, 1
  store i32 %104, ptr %6, align 4, !tbaa !39
  br label %22

105:                                              ; preds = %22
  %106 = load i32, ptr %4, align 4, !tbaa !39
  %107 = load i32, ptr %5, align 4, !tbaa !39
  %108 = add nsw i32 %107, %106
  store i32 %108, ptr %5, align 4, !tbaa !39
  store i32 0, ptr %7, align 4
  br label %109

109:                                              ; preds = %105, %99, %19
  call void @llvm.lifetime.end.p0(i64 4, ptr %6) #7
  %110 = load i32, ptr %7, align 4
  switch i32 %110, label %130 [
    i32 0, label %111
    i32 3, label %112
  ]

111:                                              ; preds = %109
  br label %112

112:                                              ; preds = %111, %109
  %113 = load i32, ptr getelementptr inbounds nuw (%struct._zend_phpdbg_globals, ptr @phpdbg_globals, i32 0, i32 40), align 8, !tbaa !42
  %114 = load ptr, ptr %3, align 8, !tbaa !4
  %115 = load i32, ptr %5, align 4, !tbaa !39
  %116 = sext i32 %115 to i64
  %117 = getelementptr inbounds i8, ptr %114, i64 %116
  %118 = load i32, ptr %5, align 4, !tbaa !39
  %119 = sub nsw i32 500, %118
  %120 = call i32 @phpdbg_mixed_read(i32 noundef %113, ptr noundef %117, i32 noundef %119, i32 noundef -1)
  store i32 %120, ptr %4, align 4, !tbaa !39
  %121 = icmp sgt i32 %120, 0
  br i1 %121, label %16, label %122

122:                                              ; preds = %112
  %123 = load i32, ptr %4, align 4, !tbaa !39
  %124 = icmp sle i32 %123, 0
  br i1 %124, label %125, label %128

125:                                              ; preds = %122
  %126 = load i64, ptr getelementptr inbounds nuw (%struct._zend_phpdbg_globals, ptr @phpdbg_globals, i32 0, i32 54), align 8, !tbaa !44
  %127 = or i64 %126, 65536
  store i64 %127, ptr getelementptr inbounds nuw (%struct._zend_phpdbg_globals, ptr @phpdbg_globals, i32 0, i32 54), align 8, !tbaa !44
  call void @_zend_bailout(ptr noundef @.str, i32 noundef 67) #8
  unreachable

128:                                              ; preds = %122
  %129 = load i32, ptr %4, align 4, !tbaa !39
  store i32 %129, ptr %2, align 4
  store i32 1, ptr %7, align 4
  br label %130

130:                                              ; preds = %128, %109
  call void @llvm.lifetime.end.p0(i64 4, ptr %5) #7
  call void @llvm.lifetime.end.p0(i64 4, ptr %4) #7
  %131 = load i32, ptr %2, align 4
  ret i32 %131
}