; Function Attrs: nounwind uwtable
define dso_local range(i32 -2147483648, 2147483647) i32 @phpdbg_consume_stdin_line(ptr noundef captures(none) %0) local_unnamed_addr #0 {
  %2 = load i32, ptr getelementptr inbounds nuw (i8, ptr @phpdbg_globals, i64 2140), align 4, !tbaa !4
  %.not = icmp eq i32 %2, 0
  br i1 %.not, label %5, label %3

3:                                                ; preds = %1
  %4 = sext i32 %2 to i64
  tail call void @llvm.memcpy.p0.p0.i64(ptr align 1 %0, ptr nonnull align 8 getelementptr inbounds nuw (i8, ptr @phpdbg_globals, i64 1640), i64 %4, i1 false)
  br label %5

5:                                                ; preds = %3, %1
  store i8 1, ptr getelementptr inbounds nuw (i8, ptr @phpdbg_globals, i64 1616), align 8, !tbaa !38
  br label %6

6:                                                ; preds = %phpdbg_mixed_read.exit, %5
  %.044 = phi i32 [ %2, %5 ], [ %44, %phpdbg_mixed_read.exit ]
  %.042 = phi i32 [ 0, %5 ], [ %.143, %phpdbg_mixed_read.exit ]
  %7 = icmp slt i32 %.044, 1
  br i1 %7, label %.loopexit, label %.preheader

.preheader:                                       ; preds = %6
  %8 = add nsw i32 %.042, %.044
  br label %9

9:                                                ; preds = %.preheader, %33
  %10 = phi i32 [ %8, %.preheader ], [ %35, %33 ]
  %.04169 = phi i32 [ %.042, %.preheader ], [ %34, %33 ]
  %.268 = phi i32 [ %.042, %.preheader ], [ %.3, %33 ]
  %11 = sext i32 %.04169 to i64
  %12 = getelementptr inbounds i8, ptr %0, i64 %11
  %13 = load i8, ptr %12, align 1, !tbaa !39
  switch i8 %13, label %33 [
    i8 3, label %14
    i8 10, label %24
  ]

14:                                               ; preds = %9
  %15 = add nsw i32 %10, -1
  %.not57 = icmp eq i32 %.04169, %15
  br i1 %.not57, label %21, label %16

16:                                               ; preds = %14
  %17 = getelementptr inbounds nuw i8, ptr %12, i64 1
  %18 = xor i32 %.04169, -1
  %19 = add i32 %10, %18
  %20 = sext i32 %19 to i64
  tail call void @llvm.memmove.p0.p0.i64(ptr nonnull align 1 %12, ptr nonnull align 1 %17, i64 %20, i1 false)
  br label %21

21:                                               ; preds = %16, %14
  %22 = add nsw i32 %.268, -1
  %23 = add nsw i32 %.04169, -1
  br label %33

24:                                               ; preds = %9
  %25 = xor i32 %.04169, -1
  %26 = add i32 %10, %25
  store i32 %26, ptr getelementptr inbounds nuw (i8, ptr @phpdbg_globals, i64 2140), align 4, !tbaa !4
  %.not55 = icmp eq i32 %26, 0
  br i1 %.not55, label %30, label %27

27:                                               ; preds = %24
  %28 = getelementptr inbounds nuw i8, ptr %12, i64 1
  %29 = sext i32 %26 to i64
  tail call void @llvm.memcpy.p0.p0.i64(ptr nonnull align 8 getelementptr inbounds nuw (i8, ptr @phpdbg_globals, i64 1640), ptr nonnull align 1 %28, i64 %29, i1 false)
  br label %30

30:                                               ; preds = %27, %24
  %.not56 = icmp eq i32 %.04169, 499
  br i1 %.not56, label %53, label %31

31:                                               ; preds = %30
  %32 = getelementptr i8, ptr %12, i64 1
  store i8 0, ptr %32, align 1, !tbaa !39
  br label %53

33:                                               ; preds = %9, %21
  %.3 = phi i32 [ %22, %21 ], [ %.268, %9 ]
  %.1 = phi i32 [ %23, %21 ], [ %.04169, %9 ]
  %34 = add nsw i32 %.1, 1
  %35 = add nsw i32 %.3, %.044
  %36 = icmp slt i32 %34, %35
  br i1 %36, label %9, label %.loopexit

.loopexit:                                        ; preds = %33, %6
  %.143 = phi i32 [ %.042, %6 ], [ %35, %33 ]
  %37 = load i32, ptr getelementptr inbounds nuw (i8, ptr @phpdbg_globals, i64 1504), align 8, !tbaa !40
  %38 = sext i32 %.143 to i64
  %39 = getelementptr inbounds i8, ptr %0, i64 %38
  %40 = sub nsw i32 500, %.143
  %41 = sext i32 %40 to i64
  br label %42

42:                                               ; preds = %46, %.loopexit
  %43 = tail call i64 @read(i32 noundef %37, ptr noundef %39, i64 noundef %41) #8
  %44 = trunc i64 %43 to i32
  %45 = icmp eq i32 %44, -1
  br i1 %45, label %46, label %phpdbg_mixed_read.exit

46:                                               ; preds = %42
  %47 = tail call ptr @__errno_location() #9
  %48 = load i32, ptr %47, align 4, !tbaa !42
  %49 = icmp eq i32 %48, 4
  br i1 %49, label %42, label %phpdbg_mixed_read.exit.thread

phpdbg_mixed_read.exit:                           ; preds = %42
  %50 = icmp sgt i32 %44, 0
  br i1 %50, label %6, label %phpdbg_mixed_read.exit.thread

phpdbg_mixed_read.exit.thread:                    ; preds = %phpdbg_mixed_read.exit, %46
  %51 = load i64, ptr getelementptr inbounds nuw (i8, ptr @phpdbg_globals, i64 2184), align 8, !tbaa !43
  %52 = or i64 %51, 65536
  store i64 %52, ptr getelementptr inbounds nuw (i8, ptr @phpdbg_globals, i64 2184), align 8, !tbaa !43
  tail call void @_zend_bailout(ptr noundef nonnull @.str, i32 noundef 67) #10
  unreachable

53:                                               ; preds = %31, %30
  ret i32 %.04169
}